target datalayout = "e-m:e-p270:32:32-p271:32:32-p272:64:64-i64:64-i128:128-f80:128-n8:16:32:64-S128"
target triple = "x86_64-pc-linux-gnu"

%struct._typeobject = type { %struct.PyVarObject, ptr, i64, i64, ptr, i64, ptr, ptr, ptr, ptr, ptr, ptr, ptr, ptr, ptr, ptr, ptr, ptr, ptr, i64, ptr, ptr, ptr, ptr, i64, ptr, ptr, ptr, ptr, ptr, ptr, ptr, ptr, ptr, i64, ptr, ptr, ptr, ptr, ptr, ptr, ptr, ptr, ptr, ptr, ptr, i32, ptr, ptr, i8, i16 }
%struct.PyVarObject = type { %struct._object, i64 }
%struct._object = type { %union.anon, ptr }
%union.anon = type { i64 }
%struct.PyASCIIObject = type { %struct._object, i64, i64, %struct.anon.46 }
%struct.anon.46 = type { i16, i16 }
%struct._ts = type { ptr, ptr, ptr, i64, %struct.anon.805, i32, i32, i32, i32, i32, i32, i32, i32, ptr, ptr, ptr, ptr, ptr, ptr, ptr, ptr, i32, ptr, i64, i64, ptr, i64, i32, ptr, ptr, ptr, i64, i64, ptr, ptr, ptr, %struct._err_stackitem, ptr, i64, ptr, ptr }
%struct.anon.805 = type { i32 }
%struct._err_stackitem = type { ptr, ptr }

@PyUnicode_Type = external global %struct._typeobject, align 8
@_Py_tss_tstate = external thread_local global ptr, align 8
@PyExc_KeyError = external global ptr, align 8

; Function Attrs: inlinehint nounwind uwtable
define internal i32 @Py_IS_TYPE(ptr noundef %0, ptr noundef %1) #2 {
  %3 = alloca ptr, align 8
  %4 = alloca ptr, align 8
  store ptr %0, ptr %3, align 8, !tbaa !27
  store ptr %1, ptr %4, align 8, !tbaa !56
  %5 = load ptr, ptr %3, align 8, !tbaa !27
  %6 = call ptr @_Py_TYPE(ptr noundef %5)
  %7 = load ptr, ptr %4, align 8, !tbaa !56
  %8 = icmp eq ptr %6, %7
  %9 = zext i1 %8 to i32
  ret i32 %9
}

; Function Attrs: inlinehint nounwind uwtable
define internal ptr @_PyErr_Occurred(ptr noundef %0) #2 {
  %2 = alloca ptr, align 8
  %3 = alloca ptr, align 8
  store ptr %0, ptr %3, align 8, !tbaa !14
  %4 = load ptr, ptr %3, align 8, !tbaa !14
  %5 = getelementptr inbounds nuw %struct._ts, ptr %4, i32 0, i32 18
  %6 = load ptr, ptr %5, align 8, !tbaa !228
  %7 = icmp eq ptr %6, null
  br i1 %7, label %8, label %9

8:                                                ; preds = %1
  store ptr null, ptr %2, align 8
  br label %14

9:                                                ; preds = %1
  %10 = load ptr, ptr %3, align 8, !tbaa !14
  %11 = getelementptr inbounds nuw %struct._ts, ptr %10, i32 0, i32 18
  %12 = load ptr, ptr %11, align 8, !tbaa !228
  %13 = call ptr @_Py_TYPE(ptr noundef %12)
  store ptr %13, ptr %2, align 8
  br label %14

14:                                               ; preds = %9, %8
  %15 = load ptr, ptr %2, align 8
  ret ptr %15
}

; Function Attrs: inlinehint nounwind uwtable
define internal ptr @_PyThreadState_GET() #2 {
  %1 = call align 8 ptr @llvm.threadlocal.address.p0(ptr align 8 @_Py_tss_tstate)
  %2 = load ptr, ptr %1, align 8, !tbaa !14
  ret ptr %2
}

; Function Attrs: inlinehint nounwind uwtable
define internal i64 @_PyObject_HashFast(ptr noundef %0) #2 {
  %2 = alloca i64, align 8
  %3 = alloca ptr, align 8
  %4 = alloca i64, align 8
  %5 = alloca i32, align 4
  store ptr %0, ptr %3, align 8, !tbaa !27
  %6 = load ptr, ptr %3, align 8, !tbaa !27
  %7 = call i32 @Py_IS_TYPE(ptr noundef %6, ptr noundef @PyUnicode_Type)
  %8 = icmp ne i32 %7, 0
  br i1 %8, label %9, label %21

9:                                                ; preds = %1
  call void @llvm.lifetime.start.p0(i64 8, ptr %4) #10
  %10 = load ptr, ptr %3, align 8, !tbaa !27
  %11 = getelementptr inbounds nuw %struct.PyASCIIObject, ptr %10, i32 0, i32 2
  %12 = load i64, ptr %11, align 8, !tbaa !67
  store i64 %12, ptr %4, align 8, !tbaa !39
  %13 = load i64, ptr %4, align 8, !tbaa !39
  %14 = icmp ne i64 %13, -1
  br i1 %14, label %15, label %17

15:                                               ; preds = %9
  %16 = load i64, ptr %4, align 8, !tbaa !39
  store i64 %16, ptr %2, align 8
  store i32 1, ptr %5, align 4
  br label %18

17:                                               ; preds = %9
  store i32 0, ptr %5, align 4
  br label %18

18:                                               ; preds = %17, %15
  call void @llvm.lifetime.end.p0(i64 8, ptr %4) #10
  %19 = load i32, ptr %5, align 4
  switch i32 %19, label %26 [
    i32 0, label %20
    i32 1, label %24
  ]

20:                                               ; preds = %18
  br label %21

21:                                               ; preds = %20, %1
  %22 = load ptr, ptr %3, align 8, !tbaa !27
  %23 = call i64 @PyObject_Hash(ptr noundef %22)
  store i64 %23, ptr %2, align 8
  br label %24

24:                                               ; preds = %21, %18
  %25 = load i64, ptr %2, align 8
  ret i64 %25

26:                                               ; preds = %18
  unreachable
}

; Function Attrs: inlinehint nounwind uwtable
define internal i32 @PyType_HasFeature(ptr noundef %0, i64 noundef %1) #2 {
  %3 = alloca ptr, align 8
  %4 = alloca i64, align 8
  %5 = alloca i64, align 8
  store ptr %0, ptr %3, align 8, !tbaa !56
  store i64 %1, ptr %4, align 8, !tbaa !39
  call void @llvm.lifetime.start.p0(i64 8, ptr %5) #10
  %6 = load ptr, ptr %3, align 8, !tbaa !56
  %7 = getelementptr inbounds nuw %struct._typeobject, ptr %6, i32 0, i32 19
  %8 = load i64, ptr %7, align 8, !tbaa !57
  store i64 %8, ptr %5, align 8, !tbaa !39
  %9 = load i64, ptr %5, align 8, !tbaa !39
  %10 = load i64, ptr %4, align 8, !tbaa !39
  %11 = and i64 %9, %10
  %12 = icmp ne i64 %11, 0
  %13 = zext i1 %12 to i32
  call void @llvm.lifetime.end.p0(i64 8, ptr %5) #10
  ret i32 %13
}

; Function Attrs: inlinehint nounwind uwtable
define internal ptr @_Py_TYPE(ptr noundef %0) #2 {
  %2 = alloca ptr, align 8
  store ptr %0, ptr %2, align 8, !tbaa !27
  %3 = load ptr, ptr %2, align 8, !tbaa !27
  %4 = getelementptr inbounds nuw %struct._object, ptr %3, i32 0, i32 1
  %5 = load ptr, ptr %4, align 8, !tbaa !65
  ret ptr %5
}

; Function Attrs: nounwind uwtable
define internal ptr @dict_getitem(ptr noundef %0, ptr noundef %1, ptr noundef %2) #0 {
  %4 = alloca ptr, align 8
  %5 = alloca ptr, align 8
  %6 = alloca ptr, align 8
  %7 = alloca ptr, align 8
  %8 = alloca ptr, align 8
  %9 = alloca i64, align 8
  %10 = alloca i32, align 4
  %11 = alloca ptr, align 8
  %12 = alloca ptr, align 8
  %13 = alloca i64, align 8
  %14 = alloca ptr, align 8
  %15 = alloca ptr, align 8
  store ptr %0, ptr %5, align 8, !tbaa !27
  store ptr %1, ptr %6, align 8, !tbaa !27
  store ptr %2, ptr %7, align 8, !tbaa !70
  %16 = load ptr, ptr %5, align 8, !tbaa !27
  %17 = call ptr @_Py_TYPE(ptr noundef %16)
  %18 = call i32 @PyType_HasFeature(ptr noundef %17, i64 noundef 536870912)
  %19 = icmp ne i32 %18, 0
  br i1 %19, label %21, label %20

20:                                               ; preds = %3
  store ptr null, ptr %4, align 8
  br label %53

21:                                               ; preds = %3
  call void @llvm.lifetime.start.p0(i64 8, ptr %8) #10
  %22 = load ptr, ptr %5, align 8, !tbaa !27
  store ptr %22, ptr %8, align 8, !tbaa !29
  call void @llvm.lifetime.start.p0(i64 8, ptr %9) #10
  %23 = load ptr, ptr %6, align 8, !tbaa !27
  %24 = call i64 @_PyObject_HashFast(ptr noundef %23)
  store i64 %24, ptr %9, align 8, !tbaa !39
  %25 = load i64, ptr %9, align 8, !tbaa !39
  %26 = icmp eq i64 %25, -1
  br i1 %26, label %27, label %29

27:                                               ; preds = %21
  %28 = load ptr, ptr %7, align 8, !tbaa !70
  call void (ptr, ...) @PyErr_FormatUnraisable(ptr noundef %28)
  store ptr null, ptr %4, align 8
  store i32 1, ptr %10, align 4
  br label %52

29:                                               ; preds = %21
  call void @llvm.lifetime.start.p0(i64 8, ptr %11) #10
  %30 = call ptr @_PyThreadState_GET()
  store ptr %30, ptr %11, align 8, !tbaa !14
  call void @llvm.lifetime.start.p0(i64 8, ptr %12) #10
  call void @llvm.lifetime.start.p0(i64 8, ptr %13) #10
  call void @llvm.lifetime.start.p0(i64 8, ptr %14) #10
  %31 = load ptr, ptr %11, align 8, !tbaa !14
  %32 = call ptr @_PyErr_GetRaisedException(ptr noundef %31)
  store ptr %32, ptr %14, align 8, !tbaa !27
  %33 = load ptr, ptr %8, align 8, !tbaa !29
  %34 = load ptr, ptr %6, align 8, !tbaa !27
  %35 = load i64, ptr %9, align 8, !tbaa !39
  %36 = call i64 @_Py_dict_lookup(ptr noundef %33, ptr noundef %34, i64 noundef %35, ptr noundef %12)
  store i64 %36, ptr %13, align 8, !tbaa !39
  call void @llvm.lifetime.start.p0(i64 8, ptr %15) #10
  %37 = load ptr, ptr %11, align 8, !tbaa !14
  %38 = call ptr @_PyErr_Occurred(ptr noundef %37)
  store ptr %38, ptr %15, align 8, !tbaa !27
  %39 = load ptr, ptr %15, align 8, !tbaa !27
  %40 = icmp ne ptr %39, null
  br i1 %40, label %41, label %48

41:                                               ; preds = %29
  %42 = load ptr, ptr %15, align 8, !tbaa !27
  %43 = load ptr, ptr @PyExc_KeyError, align 8, !tbaa !27
  %44 = call i32 @PyErr_GivenExceptionMatches(ptr noundef %42, ptr noundef %43)
  %45 = icmp ne i32 %44, 0
  br i1 %45, label %48, label %46

46:                                               ; preds = %41
  %47 = load ptr, ptr %7, align 8, !tbaa !70
  call void (ptr, ...) @PyErr_FormatUnraisable(ptr noundef %47)
  br label %48

48:                                               ; preds = %46, %41, %29
  %49 = load ptr, ptr %11, align 8, !tbaa !14
  %50 = load ptr, ptr %14, align 8, !tbaa !27
  call void @_PyErr_SetRaisedException(ptr noundef %49, ptr noundef %50)
  %51 = load ptr, ptr %12, align 8, !tbaa !27
  store ptr %51, ptr %4, align 8
  store i32 1, ptr %10, align 4
  call void @llvm.lifetime.end.p0(i64 8, ptr %15) #10
  call void @llvm.lifetime.end.p0(i64 8, ptr %14) #10
  call void @llvm.lifetime.end.p0(i64 8, ptr %13) #10
  call void @llvm.lifetime.end.p0(i64 8, ptr %12) #10
  call void @llvm.lifetime.end.p0(i64 8, ptr %11) #10
  br label %52

52:                                               ; preds = %48, %27
  call void @llvm.lifetime.end.p0(i64 8, ptr %9) #10
  call void @llvm.lifetime.end.p0(i64 8, ptr %8) #10
  br label %53

53:                                               ; preds = %52, %20
  %54 = load ptr, ptr %4, align 8
  ret ptr %54
}