; Function Attrs: nounwind uwtable
define internal fastcc ptr @dict_getitem(ptr noundef readonly captures(none) %0, ptr noundef %1, ptr noundef %2) unnamed_addr #0 {
  %4 = alloca ptr, align 8
  %5 = getelementptr i8, ptr %0, i64 8
  %.val = load ptr, ptr %5, align 8, !tbaa !25
  %6 = getelementptr i8, ptr %.val, i64 168
  %.val19 = load i64, ptr %6, align 8, !tbaa !28
  %7 = and i64 %.val19, 536870912
  %.not = icmp eq i64 %7, 0
  br i1 %.not, label %28, label %8

8:                                                ; preds = %3
  %9 = getelementptr i8, ptr %1, i64 8
  %.val.i = load ptr, ptr %9, align 8, !tbaa !25
  %.not.i = icmp eq ptr %.val.i, @PyUnicode_Type
  br i1 %.not.i, label %10, label %_PyObject_HashFast.exit

10:                                               ; preds = %8
  %11 = getelementptr inbounds nuw i8, ptr %1, i64 24
  %12 = load i64, ptr %11, align 8, !tbaa !55
  %.not7.not.i = icmp eq i64 %12, -1
  br i1 %.not7.not.i, label %_PyObject_HashFast.exit, label %_PyObject_HashFast.exit.thread

_PyObject_HashFast.exit:                          ; preds = %8, %10
  %13 = tail call i64 @PyObject_Hash(ptr noundef nonnull %1) #23
  %14 = icmp eq i64 %13, -1
  br i1 %14, label %15, label %_PyObject_HashFast.exit.thread

15:                                               ; preds = %_PyObject_HashFast.exit
  tail call void (ptr, ...) @PyErr_FormatUnraisable(ptr noundef %2) #23
  br label %28

_PyObject_HashFast.exit.thread:                   ; preds = %10, %_PyObject_HashFast.exit
  %.1.i23 = phi i64 [ %13, %_PyObject_HashFast.exit ], [ %12, %10 ]
  %16 = tail call align 8 ptr @llvm.threadlocal.address.p0(ptr align 8 @_Py_tss_tstate)
  %17 = load ptr, ptr %16, align 8, !tbaa !4
  call void @llvm.lifetime.start.p0(i64 8, ptr nonnull %4) #23
  %18 = tail call ptr @_PyErr_GetRaisedException(ptr noundef %17) #23
  %19 = call i64 @_Py_dict_lookup(ptr noundef nonnull %0, ptr noundef nonnull %1, i64 noundef %.1.i23, ptr noundef nonnull %4)
  %20 = getelementptr i8, ptr %17, i64 112
  %.val20 = load ptr, ptr %20, align 8, !tbaa !147
  %21 = icmp eq ptr %.val20, null
  br i1 %21, label %_PyErr_Occurred.exit.thread, label %_PyErr_Occurred.exit

_PyErr_Occurred.exit:                             ; preds = %_PyObject_HashFast.exit.thread
  %22 = getelementptr i8, ptr %.val20, i64 8
  %.val.i21 = load ptr, ptr %22, align 8, !tbaa !25
  %.not17 = icmp eq ptr %.val.i21, null
  br i1 %.not17, label %_PyErr_Occurred.exit.thread, label %23

23:                                               ; preds = %_PyErr_Occurred.exit
  %24 = load ptr, ptr @PyExc_KeyError, align 8, !tbaa !64
  %25 = tail call i32 @PyErr_GivenExceptionMatches(ptr noundef nonnull %.val.i21, ptr noundef %24) #23
  %.not18 = icmp eq i32 %25, 0
  br i1 %.not18, label %26, label %_PyErr_Occurred.exit.thread

26:                                               ; preds = %23
  tail call void (ptr, ...) @PyErr_FormatUnraisable(ptr noundef %2) #23
  br label %_PyErr_Occurred.exit.thread

_PyErr_Occurred.exit.thread:                      ; preds = %_PyObject_HashFast.exit.thread, %26, %23, %_PyErr_Occurred.exit
  tail call void @_PyErr_SetRaisedException(ptr noundef nonnull %17, ptr noundef %18) #23
  %27 = load ptr, ptr %4, align 8, !tbaa !64
  call void @llvm.lifetime.end.p0(i64 8, ptr nonnull %4) #23
  br label %28

28:                                               ; preds = %15, %_PyErr_Occurred.exit.thread, %3
  %.0 = phi ptr [ null, %3 ], [ null, %15 ], [ %27, %_PyErr_Occurred.exit.thread ]
  ret ptr %.0
}